target datalayout = "e-m:e-p270:32:32-p271:32:32-p272:64:64-i64:64-i128:128-f80:128-n8:16:32:64-S128"
target triple = "x86_64-unknown-linux-gnu"

@.str.114 = private unnamed_addr constant [11 x i8] c"version=1\0A\00", align 1
@.str.115 = private unnamed_addr constant [11 x i8] c"version=2\0A\00", align 1
@.str.116 = private unnamed_addr constant [11 x i8] c"version=3\0A\00", align 1
@.str.117 = private unnamed_addr constant [12 x i8] c"version=1\0D\0A\00", align 1
@.str.118 = private unnamed_addr constant [12 x i8] c"version=2\0D\0A\00", align 1
@.str.119 = private unnamed_addr constant [12 x i8] c"version=3\0D\0A\00", align 1

; Function Attrs: nounwind sspstrong uwtable
define internal i32 @be32_to_cpu(i32 noundef %v) #0 {
entry:
  %v.addr = alloca i32, align 4
  store i32 %v, ptr %v.addr, align 4
  %0 = load i32, ptr %v.addr, align 4
  %1 = call i32 @llvm.bswap.i32(i32 %0)
  ret i32 %1
}

; Function Attrs: nounwind sspstrong uwtable
define internal i32 @vmdk_probe(ptr noundef %buf, i32 noundef %buf_size, ptr noundef %filename) #0 {
entry:
  %retval = alloca i32, align 4
  %buf.addr = alloca ptr, align 8
  %buf_size.addr = alloca i32, align 4
  %filename.addr = alloca ptr, align 8
  %magic = alloca i32, align 4
  %p = alloca ptr, align 8
  %end = alloca ptr, align 8
  store ptr %buf, ptr %buf.addr, align 8
  store i32 %buf_size, ptr %buf_size.addr, align 4
  store ptr %filename, ptr %filename.addr, align 8
  %0 = load i32, ptr %buf_size.addr, align 4
  %cmp = icmp slt i32 %0, 4
  br i1 %cmp, label %if.then, label %if.end

if.then:                                          ; preds = %entry
  store i32 0, ptr %retval, align 4
  br label %return

if.end:                                           ; preds = %entry
  %1 = load ptr, ptr %buf.addr, align 8
  %2 = load i32, ptr %1, align 4
  %call = call i32 @be32_to_cpu(i32 noundef %2)
  store i32 %call, ptr %magic, align 4
  %3 = load i32, ptr %magic, align 4
  %cmp1 = icmp eq i32 %3, 1129273156
  br i1 %cmp1, label %if.then3, label %lor.lhs.false

lor.lhs.false:                                    ; preds = %if.end
  %4 = load i32, ptr %magic, align 4
  %cmp2 = icmp eq i32 %4, 1262767446
  br i1 %cmp2, label %if.then3, label %if.else

if.then3:                                         ; preds = %lor.lhs.false, %if.end
  store i32 100, ptr %retval, align 4
  br label %return

if.else:                                          ; preds = %lor.lhs.false
  %5 = load ptr, ptr %buf.addr, align 8
  store ptr %5, ptr %p, align 8
  %6 = load ptr, ptr %p, align 8
  %7 = load i32, ptr %buf_size.addr, align 4
  %idx.ext = sext i32 %7 to i64
  %add.ptr = getelementptr i8, ptr %6, i64 %idx.ext
  store ptr %add.ptr, ptr %end, align 8
  br label %while.cond

while.cond:                                       ; preds = %if.end47, %while.end, %if.else
  %8 = load ptr, ptr %p, align 8
  %9 = load ptr, ptr %end, align 8
  %cmp4 = icmp ult ptr %8, %9
  br i1 %cmp4, label %while.body, label %while.end87

while.body:                                       ; preds = %while.cond
  %10 = load ptr, ptr %p, align 8
  %11 = load i8, ptr %10, align 1
  %conv = sext i8 %11 to i32
  %cmp5 = icmp eq i32 %conv, 35
  br i1 %cmp5, label %if.then7, label %if.end16

if.then7:                                         ; preds = %while.body
  br label %while.cond8

while.cond8:                                      ; preds = %while.body14, %if.then7
  %12 = load ptr, ptr %p, align 8
  %13 = load ptr, ptr %end, align 8
  %cmp9 = icmp ult ptr %12, %13
  br i1 %cmp9, label %land.rhs, label %land.end

land.rhs:                                         ; preds = %while.cond8
  %14 = load ptr, ptr %p, align 8
  %15 = load i8, ptr %14, align 1
  %conv11 = sext i8 %15 to i32
  %cmp12 = icmp ne i32 %conv11, 10
  br label %land.end

land.end:                                         ; preds = %land.rhs, %while.cond8
  %16 = phi i1 [ false, %while.cond8 ], [ %cmp12, %land.rhs ]
  br i1 %16, label %while.body14, label %while.end

while.body14:                                     ; preds = %land.end
  %17 = load ptr, ptr %p, align 8
  %incdec.ptr = getelementptr i8, ptr %17, i32 1
  store ptr %incdec.ptr, ptr %p, align 8
  br label %while.cond8, !llvm.loop !10

while.end:                                        ; preds = %land.end
  %18 = load ptr, ptr %p, align 8
  %incdec.ptr15 = getelementptr i8, ptr %18, i32 1
  store ptr %incdec.ptr15, ptr %p, align 8
  br label %while.cond, !llvm.loop !11

if.end16:                                         ; preds = %while.body
  %19 = load ptr, ptr %p, align 8
  %20 = load i8, ptr %19, align 1
  %conv17 = sext i8 %20 to i32
  %cmp18 = icmp eq i32 %conv17, 32
  br i1 %cmp18, label %if.then20, label %if.end49

if.then20:                                        ; preds = %if.end16
  br label %while.cond21

while.cond21:                                     ; preds = %while.body29, %if.then20
  %21 = load ptr, ptr %p, align 8
  %22 = load ptr, ptr %end, align 8
  %cmp22 = icmp ult ptr %21, %22
  br i1 %cmp22, label %land.rhs24, label %land.end28

land.rhs24:                                       ; preds = %while.cond21
  %23 = load ptr, ptr %p, align 8
  %24 = load i8, ptr %23, align 1
  %conv25 = sext i8 %24 to i32
  %cmp26 = icmp eq i32 %conv25, 32
  br label %land.end28

land.end28:                                       ; preds = %land.rhs24, %while.cond21
  %25 = phi i1 [ false, %while.cond21 ], [ %cmp26, %land.rhs24 ]
  br i1 %25, label %while.body29, label %while.end31

while.body29:                                     ; preds = %land.end28
  %26 = load ptr, ptr %p, align 8
  %incdec.ptr30 = getelementptr i8, ptr %26, i32 1
  store ptr %incdec.ptr30, ptr %p, align 8
  br label %while.cond21, !llvm.loop !12

while.end31:                                      ; preds = %land.end28
  %27 = load ptr, ptr %p, align 8
  %28 = load ptr, ptr %end, align 8
  %cmp32 = icmp ult ptr %27, %28
  br i1 %cmp32, label %land.lhs.true, label %if.end39

land.lhs.true:                                    ; preds = %while.end31
  %29 = load ptr, ptr %p, align 8
  %30 = load i8, ptr %29, align 1
  %conv34 = sext i8 %30 to i32
  %cmp35 = icmp eq i32 %conv34, 13
  br i1 %cmp35, label %if.then37, label %if.end39

if.then37:                                        ; preds = %land.lhs.true
  %31 = load ptr, ptr %p, align 8
  %incdec.ptr38 = getelementptr i8, ptr %31, i32 1
  store ptr %incdec.ptr38, ptr %p, align 8
  br label %if.end39

if.end39:                                         ; preds = %if.then37, %land.lhs.true, %while.end31
  %32 = load ptr, ptr %p, align 8
  %33 = load ptr, ptr %end, align 8
  %cmp40 = icmp eq ptr %32, %33
  br i1 %cmp40, label %if.then46, label %lor.lhs.false42

lor.lhs.false42:                                  ; preds = %if.end39
  %34 = load ptr, ptr %p, align 8
  %35 = load i8, ptr %34, align 1
  %conv43 = sext i8 %35 to i32
  %cmp44 = icmp ne i32 %conv43, 10
  br i1 %cmp44, label %if.then46, label %if.end47

if.then46:                                        ; preds = %lor.lhs.false42, %if.end39
  store i32 0, ptr %retval, align 4
  br label %return

if.end47:                                         ; preds = %lor.lhs.false42
  %36 = load ptr, ptr %p, align 8
  %incdec.ptr48 = getelementptr i8, ptr %36, i32 1
  store ptr %incdec.ptr48, ptr %p, align 8
  br label %while.cond, !llvm.loop !11

if.end49:                                         ; preds = %if.end16
  %37 = load ptr, ptr %end, align 8
  %38 = load ptr, ptr %p, align 8
  %sub.ptr.lhs.cast = ptrtoint ptr %37 to i64
  %sub.ptr.rhs.cast = ptrtoint ptr %38 to i64
  %sub.ptr.sub = sub i64 %sub.ptr.lhs.cast, %sub.ptr.rhs.cast
  %cmp50 = icmp uge i64 %sub.ptr.sub, 10
  br i1 %cmp50, label %if.then52, label %if.end66

if.then52:                                        ; preds = %if.end49
  %39 = load ptr, ptr %p, align 8
  %call53 = call i32 @strncmp(ptr noundef @.str.114, ptr noundef %39, i64 noundef 10) #13
  %cmp54 = icmp eq i32 %call53, 0
  br i1 %cmp54, label %if.then64, label %lor.lhs.false56

lor.lhs.false56:                                  ; preds = %if.then52
  %40 = load ptr, ptr %p, align 8
  %call57 = call i32 @strncmp(ptr noundef @.str.115, ptr noundef %40, i64 noundef 10) #13
  %cmp58 = icmp eq i32 %call57, 0
  br i1 %cmp58, label %if.then64, label %lor.lhs.false60

lor.lhs.false60:                                  ; preds = %lor.lhs.false56
  %41 = load ptr, ptr %p, align 8
  %call61 = call i32 @strncmp(ptr noundef @.str.116, ptr noundef %41, i64 noundef 10) #13
  %cmp62 = icmp eq i32 %call61, 0
  br i1 %cmp62, label %if.then64, label %if.end65

if.then64:                                        ; preds = %lor.lhs.false60, %lor.lhs.false56, %if.then52
  store i32 100, ptr %retval, align 4
  br label %return

if.end65:                                         ; preds = %lor.lhs.false60
  br label %if.end66

if.end66:                                         ; preds = %if.end65, %if.end49
  %42 = load ptr, ptr %end, align 8
  %43 = load ptr, ptr %p, align 8
  %sub.ptr.lhs.cast67 = ptrtoint ptr %42 to i64
  %sub.ptr.rhs.cast68 = ptrtoint ptr %43 to i64
  %sub.ptr.sub69 = sub i64 %sub.ptr.lhs.cast67, %sub.ptr.rhs.cast68
  %cmp70 = icmp uge i64 %sub.ptr.sub69, 11
  br i1 %cmp70, label %if.then72, label %if.end86

if.then72:                                        ; preds = %if.end66
  %44 = load ptr, ptr %p, align 8
  %call73 = call i32 @strncmp(ptr noundef @.str.117, ptr noundef %44, i64 noundef 11) #13
  %cmp74 = icmp eq i32 %call73, 0
  br i1 %cmp74, label %if.then84, label %lor.lhs.false76

lor.lhs.false76:                                  ; preds = %if.then72
  %45 = load ptr, ptr %p, align 8
  %call77 = call i32 @strncmp(ptr noundef @.str.118, ptr noundef %45, i64 noundef 11) #13
  %cmp78 = icmp eq i32 %call77, 0
  br i1 %cmp78, label %if.then84, label %lor.lhs.false80

lor.lhs.false80:                                  ; preds = %lor.lhs.false76
  %46 = load ptr, ptr %p, align 8
  %call81 = call i32 @strncmp(ptr noundef @.str.119, ptr noundef %46, i64 noundef 11) #13
  %cmp82 = icmp eq i32 %call81, 0
  br i1 %cmp82, label %if.then84, label %if.end85

if.then84:                                        ; preds = %lor.lhs.false80, %lor.lhs.false76, %if.then72
  store i32 100, ptr %retval, align 4
  br label %return

if.end85:                                         ; preds = %lor.lhs.false80
  br label %if.end86

if.end86:                                         ; preds = %if.end85, %if.end66
  store i32 0, ptr %retval, align 4
  br label %return

while.end87:                                      ; preds = %while.cond
  store i32 0, ptr %retval, align 4
  br label %return

return:                                           ; preds = %while.end87, %if.end86, %if.then84, %if.then64, %if.then46, %if.then3, %if.then
  %47 = load i32, ptr %retval, align 4
  ret i32 %47
}