; Function Attrs: nofree nounwind sspstrong memory(argmem: read) uwtable
define internal range(i32 0, 101) i32 @vmdk_probe(ptr noundef %buf, i32 noundef %buf_size, ptr readnone captures(none) %filename) #3 {
entry:
  %cmp = icmp slt i32 %buf_size, 4
  br i1 %cmp, label %return, label %if.end

if.end:                                           ; preds = %entry
  %0 = load i32, ptr %buf, align 4
  %1 = tail call noundef i32 @llvm.bswap.i32(i32 %0)
  switch i32 %1, label %if.else [
    i32 1262767446, label %return
    i32 1129273156, label %return
  ]

if.else:                                          ; preds = %if.end
  %idx.ext = zext nneg i32 %buf_size to i64
  %add.ptr = getelementptr i8, ptr %buf, i64 %idx.ext
  %cmp443 = icmp ult ptr %buf, %add.ptr
  br i1 %cmp443, label %while.body, label %return

while.body:                                       ; preds = %if.else, %while.cond.backedge
  %p.044 = phi ptr [ %p.0.be, %while.cond.backedge ], [ %buf, %if.else ]
  %2 = load i8, ptr %p.044, align 1
  switch i8 %2, label %if.end49 [
    i8 35, label %while.cond8.preheader
    i8 32, label %while.cond21.preheader
  ]

while.cond21.preheader:                           ; preds = %while.body
  %cmp2237 = icmp ult ptr %p.044, %add.ptr
  br i1 %cmp2237, label %while.body29, label %if.end39

while.cond8.preheader:                            ; preds = %while.body
  %cmp939 = icmp ult ptr %p.044, %add.ptr
  br i1 %cmp939, label %while.body14, label %while.cond.backedge

land.rhsthread-pre-split:                         ; preds = %while.body14
  %.pr = load i8, ptr %incdec.ptr, align 1
  %cmp12.not = icmp eq i8 %.pr, 10
  br i1 %cmp12.not, label %while.cond.backedge, label %while.body14

while.body14:                                     ; preds = %while.cond8.preheader, %land.rhsthread-pre-split
  %p.14056 = phi ptr [ %incdec.ptr, %land.rhsthread-pre-split ], [ %p.044, %while.cond8.preheader ]
  %incdec.ptr = getelementptr i8, ptr %p.14056, i64 1
  %cmp9 = icmp ult ptr %incdec.ptr, %add.ptr
  br i1 %cmp9, label %land.rhsthread-pre-split, label %while.cond.backedge, !llvm.loop !10

while.cond.backedge:                              ; preds = %while.body14, %land.rhsthread-pre-split, %lor.lhs.false42, %while.cond8.preheader
  %p.1.lcssa.pn = phi ptr [ %p.044, %while.cond8.preheader ], [ %p.3, %lor.lhs.false42 ], [ %incdec.ptr, %land.rhsthread-pre-split ], [ %incdec.ptr, %while.body14 ]
  %p.0.be = getelementptr i8, ptr %p.1.lcssa.pn, i64 1
  %cmp4 = icmp ult ptr %p.0.be, %add.ptr
  br i1 %cmp4, label %while.body, label %return, !llvm.loop !11

land.rhs24thread-pre-split:                       ; preds = %while.body29
  %.pr48 = load i8, ptr %incdec.ptr30, align 1
  %cmp26 = icmp eq i8 %.pr48, 32
  br i1 %cmp26, label %while.body29, label %land.lhs.true

while.body29:                                     ; preds = %while.cond21.preheader, %land.rhs24thread-pre-split
  %p.23855 = phi ptr [ %incdec.ptr30, %land.rhs24thread-pre-split ], [ %p.044, %while.cond21.preheader ]
  %incdec.ptr30 = getelementptr i8, ptr %p.23855, i64 1
  %cmp22 = icmp ult ptr %incdec.ptr30, %add.ptr
  br i1 %cmp22, label %land.rhs24thread-pre-split, label %if.end39, !llvm.loop !12

land.lhs.true:                                    ; preds = %land.rhs24thread-pre-split
  %cmp35 = icmp eq i8 %.pr48, 13
  %spec.select.idx = zext i1 %cmp35 to i64
  %spec.select = getelementptr i8, ptr %incdec.ptr30, i64 %spec.select.idx
  br label %if.end39

if.end39:                                         ; preds = %while.body29, %while.cond21.preheader, %land.lhs.true
  %p.3 = phi ptr [ %spec.select, %land.lhs.true ], [ %p.044, %while.cond21.preheader ], [ %incdec.ptr30, %while.body29 ]
  %cmp40 = icmp eq ptr %p.3, %add.ptr
  br i1 %cmp40, label %return, label %lor.lhs.false42

lor.lhs.false42:                                  ; preds = %if.end39
  %3 = load i8, ptr %p.3, align 1
  %cmp44.not = icmp eq i8 %3, 10
  br i1 %cmp44.not, label %while.cond.backedge, label %return

if.end49:                                         ; preds = %while.body
  %sub.ptr.lhs.cast = ptrtoint ptr %add.ptr to i64
  %sub.ptr.rhs.cast = ptrtoint ptr %p.044 to i64
  %sub.ptr.sub = sub i64 %sub.ptr.lhs.cast, %sub.ptr.rhs.cast
  %cmp50 = icmp ugt i64 %sub.ptr.sub, 9
  br i1 %cmp50, label %if.then52, label %if.end86

if.then52:                                        ; preds = %if.end49
  %call53 = tail call i32 @strncmp(ptr noundef nonnull dereferenceable(11) @.str.114, ptr noundef nonnull dereferenceable(1) %p.044, i64 noundef 10) #19
  %cmp54 = icmp eq i32 %call53, 0
  br i1 %cmp54, label %return, label %lor.lhs.false56

lor.lhs.false56:                                  ; preds = %if.then52
  %call57 = tail call i32 @strncmp(ptr noundef nonnull dereferenceable(11) @.str.115, ptr noundef nonnull dereferenceable(1) %p.044, i64 noundef 10) #19
  %cmp58 = icmp eq i32 %call57, 0
  br i1 %cmp58, label %return, label %lor.lhs.false60

lor.lhs.false60:                                  ; preds = %lor.lhs.false56
  %call61 = tail call i32 @strncmp(ptr noundef nonnull dereferenceable(11) @.str.116, ptr noundef nonnull dereferenceable(1) %p.044, i64 noundef 10) #19
  %cmp62 = icmp eq i32 %call61, 0
  br i1 %cmp62, label %return, label %if.end66

if.end66:                                         ; preds = %lor.lhs.false60
  %cmp70.not = icmp eq i64 %sub.ptr.sub, 10
  br i1 %cmp70.not, label %if.end86, label %if.then72

if.then72:                                        ; preds = %if.end66
  %call73 = tail call i32 @strncmp(ptr noundef nonnull dereferenceable(12) @.str.117, ptr noundef nonnull dereferenceable(1) %p.044, i64 noundef 11) #19
  %cmp74 = icmp eq i32 %call73, 0
  br i1 %cmp74, label %return, label %lor.lhs.false76

lor.lhs.false76:                                  ; preds = %if.then72
  %call77 = tail call i32 @strncmp(ptr noundef nonnull dereferenceable(12) @.str.118, ptr noundef nonnull dereferenceable(1) %p.044, i64 noundef 11) #19
  %cmp78 = icmp eq i32 %call77, 0
  br i1 %cmp78, label %return, label %lor.lhs.false80

lor.lhs.false80:                                  ; preds = %lor.lhs.false76
  %call81 = tail call i32 @strncmp(ptr noundef nonnull dereferenceable(12) @.str.119, ptr noundef nonnull dereferenceable(1) %p.044, i64 noundef 11) #19
  %cmp82 = icmp eq i32 %call81, 0
  br i1 %cmp82, label %return, label %if.end86

if.end86:                                         ; preds = %if.end49, %lor.lhs.false80, %if.end66
  br label %return

return:                                           ; preds = %lor.lhs.false42, %if.end39, %while.cond.backedge, %if.else, %if.then72, %lor.lhs.false76, %lor.lhs.false80, %if.then52, %lor.lhs.false56, %lor.lhs.false60, %if.end, %if.end, %entry, %if.end86
  %retval.0 = phi i32 [ 0, %if.end86 ], [ 0, %entry ], [ 100, %if.end ], [ 100, %if.end ], [ 100, %lor.lhs.false60 ], [ 100, %lor.lhs.false56 ], [ 100, %if.then52 ], [ 100, %lor.lhs.false80 ], [ 100, %lor.lhs.false76 ], [ 100, %if.then72 ], [ 0, %if.else ], [ 0, %while.cond.backedge ], [ 0, %if.end39 ], [ 0, %lor.lhs.false42 ]
  ret i32 %retval.0
}